	.file	"main.cpp"
	.text
.Ltext0:
	.local	_ZStL8__ioinit
	.comm	_ZStL8__ioinit,1,1
	.section	.text._ZN4BookC2EPKcii,"axG",@progbits,_ZN4BookC5EPKcii,comdat
	.align 2
	.weak	_ZN4BookC2EPKcii
	.type	_ZN4BookC2EPKcii, @function
_ZN4BookC2EPKcii:
.LFB1022:
	.file 1 "main.cpp"
	.loc 1 35 0
	.cfi_startproc
	pushq	%rbp
	.cfi_def_cfa_offset 16
	.cfi_offset 6, -16
	movq	%rsp, %rbp
	.cfi_def_cfa_register 6
	movq	%rdi, -8(%rbp)
	movq	%rsi, -16(%rbp)
	movl	%edx, -20(%rbp)
	movl	%ecx, -24(%rbp)
.LBB2:
	.loc 1 36 0
	movq	-8(%rbp), %rax
	movl	-20(%rbp), %edx
	movl	%edx, 32(%rax)
	movq	-8(%rbp), %rax
	movl	-24(%rbp), %edx
	movl	%edx, 36(%rax)
.LBE2:
	.loc 1 38 0
	nop
	popq	%rbp
	.cfi_def_cfa 7, 8
	ret
	.cfi_endproc
.LFE1022:
	.size	_ZN4BookC2EPKcii, .-_ZN4BookC2EPKcii
	.weak	_ZN4BookC1EPKcii
	.set	_ZN4BookC1EPKcii,_ZN4BookC2EPKcii
	.section	.text._ZN4Book5inputEv,"axG",@progbits,_ZN4Book5inputEv,comdat
	.align 2
	.weak	_ZN4Book5inputEv
	.type	_ZN4Book5inputEv, @function
_ZN4Book5inputEv:
.LFB1024:
	.loc 1 40 0
	.cfi_startproc
	pushq	%rbp
	.cfi_def_cfa_offset 16
	.cfi_offset 6, -16
	movq	%rsp, %rbp
	.cfi_def_cfa_register 6
	movq	%rdi, -8(%rbp)
	.loc 1 42 0
	nop
	popq	%rbp
	.cfi_def_cfa 7, 8
	ret
	.cfi_endproc
.LFE1024:
	.size	_ZN4Book5inputEv, .-_ZN4Book5inputEv
	.section	.text._ZN4Book6outputEv,"axG",@progbits,_ZN4Book6outputEv,comdat
	.align 2
	.weak	_ZN4Book6outputEv
	.type	_ZN4Book6outputEv, @function
_ZN4Book6outputEv:
.LFB1025:
	.loc 1 44 0
	.cfi_startproc
	pushq	%rbp
	.cfi_def_cfa_offset 16
	.cfi_offset 6, -16
	movq	%rsp, %rbp
	.cfi_def_cfa_register 6
	movq	%rdi, -8(%rbp)
	.loc 1 46 0
	nop
	popq	%rbp
	.cfi_def_cfa 7, 8
	ret
	.cfi_endproc
.LFE1025:
	.size	_ZN4Book6outputEv, .-_ZN4Book6outputEv
	.section	.rodata
.LC0:
	.string	"abc"
	.text
	.globl	main
	.type	main, @function
main:
.LFB1026:
	.loc 1 69 0
	.cfi_startproc
	pushq	%rbp
	.cfi_def_cfa_offset 16
	.cfi_offset 6, -16
	movq	%rsp, %rbp
	.cfi_def_cfa_register 6
	subq	$96, %rsp
	movl	%edi, -68(%rbp)
	movq	%rsi, -80(%rbp)
	movq	%rdx, -88(%rbp)
	.loc 1 69 0
	movq	%fs:40, %rax
	movq	%rax, -8(%rbp)
	xorl	%eax, %eax
	.loc 1 70 0
	leaq	-48(%rbp), %rax
	movl	$2, %ecx
	movl	$1, %edx
	movl	$.LC0, %esi
	movq	%rax, %rdi
	call	_ZN4BookC1EPKcii
	.loc 1 71 0
	leaq	-48(%rbp), %rax
	movq	%rax, %rdi
	call	_ZN4Book6outputEv
	.loc 1 73 0
	movq	$_ZN4Book5inputEv, -64(%rbp)
	movq	$0, -56(%rbp)
	.loc 1 75 0
	movq	-64(%rbp), %rax
	movq	-56(%rbp), %rdx
	movq	%rdx, %rcx
	leaq	-48(%rbp), %rdx
	addq	%rcx, %rdx
	movq	%rdx, %rdi
	call	*%rax
	.loc 1 76 0
	leaq	-48(%rbp), %rax
	movq	%rax, %rdi
	call	_ZN4Book6outputEv
	.loc 1 78 0
	movl	$0, %eax
	.loc 1 79 0
	movq	-8(%rbp), %rsi
	xorq	%fs:40, %rsi
	je	.L6
	call	__stack_chk_fail
.L6:
	leave
	.cfi_def_cfa 7, 8
	ret
	.cfi_endproc
.LFE1026:
	.size	main, .-main
	.type	_Z41__static_initialization_and_destruction_0ii, @function
_Z41__static_initialization_and_destruction_0ii:
.LFB1027:
	.loc 1 79 0
	.cfi_startproc
	pushq	%rbp
	.cfi_def_cfa_offset 16
	.cfi_offset 6, -16
	movq	%rsp, %rbp
	.cfi_def_cfa_register 6
	subq	$16, %rsp
	movl	%edi, -4(%rbp)
	movl	%esi, -8(%rbp)
	.loc 1 79 0
	cmpl	$1, -4(%rbp)
	jne	.L9
	.loc 1 79 0 is_stmt 0 discriminator 1
	cmpl	$65535, -8(%rbp)
	jne	.L9
	.file 2 "/usr/include/c++/5/iostream"
	.loc 2 74 0 is_stmt 1
	movl	$_ZStL8__ioinit, %edi
	call	_ZNSt8ios_base4InitC1Ev
	movl	$__dso_handle, %edx
	movl	$_ZStL8__ioinit, %esi
	movl	$_ZNSt8ios_base4InitD1Ev, %edi
	call	__cxa_atexit
.L9:
	.loc 1 79 0
	nop
	leave
	.cfi_def_cfa 7, 8
	ret
	.cfi_endproc
.LFE1027:
	.size	_Z41__static_initialization_and_destruction_0ii, .-_Z41__static_initialization_and_destruction_0ii
	.type	_GLOBAL__sub_I_main, @function
_GLOBAL__sub_I_main:
.LFB1028:
	.loc 1 79 0
	.cfi_startproc
	pushq	%rbp
	.cfi_def_cfa_offset 16
	.cfi_offset 6, -16
	movq	%rsp, %rbp
	.cfi_def_cfa_register 6
	.loc 1 79 0
	movl	$65535, %esi
	movl	$1, %edi
	call	_Z41__static_initialization_and_destruction_0ii
	popq	%rbp
	.cfi_def_cfa 7, 8
	ret
	.cfi_endproc
.LFE1028:
	.size	_GLOBAL__sub_I_main, .-_GLOBAL__sub_I_main
	.section	.init_array,"aw"
	.align 8
	.quad	_GLOBAL__sub_I_main
	.text
.Letext0:
	.file 3 "/usr/lib/gcc/x86_64-linux-gnu/5/include/stddef.h"
	.file 4 "/usr/include/x86_64-linux-gnu/bits/types.h"
	.file 5 "/usr/include/libio.h"
	.file 6 "/usr/include/stdio.h"
	.file 7 "/usr/include/wchar.h"
	.file 8 "<built-in>"
	.file 9 "/usr/include/c++/5/cwchar"
	.file 10 "/usr/include/x86_64-linux-gnu/c++/5/bits/c++config.h"
	.file 11 "/usr/include/c++/5/debug/debug.h"
	.file 12 "/usr/include/c++/5/clocale"
	.file 13 "/usr/include/c++/5/bits/ios_base.h"
	.file 14 "/usr/include/c++/5/cwctype"
	.file 15 "/usr/include/c++/5/bits/predefined_ops.h"
	.file 16 "/usr/include/c++/5/ext/new_allocator.h"
	.file 17 "/usr/include/c++/5/ext/numeric_traits.h"
	.file 18 "/usr/include/time.h"
	.file 19 "/usr/include/locale.h"
	.file 20 "/usr/include/x86_64-linux-gnu/c++/5/bits/atomic_word.h"
	.file 21 "/usr/include/wctype.h"
	.section	.note.GNU-stack,"",@progbits
