	.file	"pointer.cpp"
	.text
.Ltext0:
	.local	_ZStL8__ioinit
	.comm	_ZStL8__ioinit,1,1
	.type	_Z41__static_initialization_and_destruction_0ii, @function
_Z41__static_initialization_and_destruction_0ii:
.LFB1021:
	.file 1 "/home/iamjy1005/work/lab/practice/c++/../user-library/src/common/include/common.h"
	.loc 1 124 0
	.cfi_startproc
	pushq	%rbp
	.cfi_def_cfa_offset 16
	.cfi_offset 6, -16
	movq	%rsp, %rbp
	.cfi_def_cfa_register 6
	subq	$16, %rsp
	movl	%edi, -4(%rbp)
	movl	%esi, -8(%rbp)
	.loc 1 124 0
	cmpl	$1, -4(%rbp)
	jne	.L3
	.loc 1 124 0 is_stmt 0 discriminator 1
	cmpl	$65535, -8(%rbp)
	jne	.L3
	.file 2 "/usr/include/c++/5/iostream"
	.loc 2 74 0 is_stmt 1
	movl	$_ZStL8__ioinit, %edi
	call	_ZNSt8ios_base4InitC1Ev
	movl	$__dso_handle, %edx
	movl	$_ZStL8__ioinit, %esi
	movl	$_ZNSt8ios_base4InitD1Ev, %edi
	call	__cxa_atexit
.L3:
	.loc 1 124 0
	nop
	leave
	.cfi_def_cfa 7, 8
	ret
	.cfi_endproc
.LFE1021:
	.size	_Z41__static_initialization_and_destruction_0ii, .-_Z41__static_initialization_and_destruction_0ii
	.type	_GLOBAL__sub_I_pointer.cpp, @function
_GLOBAL__sub_I_pointer.cpp:
.LFB1022:
	.loc 1 124 0
	.cfi_startproc
	pushq	%rbp
	.cfi_def_cfa_offset 16
	.cfi_offset 6, -16
	movq	%rsp, %rbp
	.cfi_def_cfa_register 6
	.loc 1 124 0
	movl	$65535, %esi
	movl	$1, %edi
	call	_Z41__static_initialization_and_destruction_0ii
	popq	%rbp
	.cfi_def_cfa 7, 8
	ret
	.cfi_endproc
.LFE1022:
	.size	_GLOBAL__sub_I_pointer.cpp, .-_GLOBAL__sub_I_pointer.cpp
	.section	.init_array,"aw"
	.align 8
	.quad	_GLOBAL__sub_I_pointer.cpp
	.text
.Letext0:
	.file 3 "/usr/lib/gcc/x86_64-linux-gnu/5/include/stddef.h"
	.file 4 "/usr/include/x86_64-linux-gnu/bits/types.h"
	.file 5 "/usr/include/libio.h"
	.file 6 "/usr/include/stdio.h"
	.file 7 "/usr/include/wchar.h"
	.file 8 "<built-in>"
	.file 9 "/usr/include/c++/5/cwchar"
	.file 10 "/usr/include/x86_64-linux-gnu/c++/5/bits/c++config.h"
	.file 11 "/usr/include/c++/5/debug/debug.h"
	.file 12 "/usr/include/c++/5/clocale"
	.file 13 "/usr/include/c++/5/bits/ios_base.h"
	.file 14 "/usr/include/c++/5/cwctype"
	.file 15 "/usr/include/c++/5/bits/predefined_ops.h"
	.file 16 "/usr/include/c++/5/ext/new_allocator.h"
	.file 17 "/usr/include/c++/5/ext/numeric_traits.h"
	.file 18 "/usr/include/time.h"
	.file 19 "/usr/include/locale.h"
	.file 20 "/usr/include/x86_64-linux-gnu/c++/5/bits/atomic_word.h"
	.file 21 "/usr/include/wctype.h"
	.section	.note.GNU-stack,"",@progbits
